; Function Attrs: nounwind uwtable
define hidden void @X11_HandlePresent(ptr noundef readonly captures(none) %0) local_unnamed_addr #0 {
  %2 = getelementptr inbounds nuw i8, ptr %0, i64 392
  %3 = load ptr, ptr %2, align 8
  %4 = getelementptr inbounds nuw i8, ptr %3, i64 336
  %5 = load ptr, ptr %4, align 8
  %6 = load ptr, ptr %5, align 8
  %7 = getelementptr inbounds nuw i8, ptr %3, i64 448
  %8 = load i64, ptr %7, align 8
  %9 = icmp eq i64 %8, 0
  br i1 %9, label %19, label %10

10:                                               ; preds = %1
  %11 = getelementptr inbounds nuw i8, ptr %3, i64 464
  %12 = load i8, ptr %11, align 8, !range !3, !noundef !4
  %13 = trunc nuw i8 %12 to i1
  br i1 %13, label %14, label %19

14:                                               ; preds = %10
  %15 = load ptr, ptr @X11_XSyncSetCounter, align 8
  %16 = getelementptr inbounds nuw i8, ptr %3, i64 456
  %17 = load i64, ptr %16, align 8
  %18 = tail call i32 %15(ptr noundef %6, i64 noundef %8, i64 %17) #7
  tail call void @llvm.memset.p0.i64(ptr noundef nonnull align 8 dereferenceable(9) %16, i8 0, i64 9, i1 false)
  br label %19

19:                                               ; preds = %1, %10, %14
  ret void
}